; Function Attrs: nounwind uwtable
define dso_local range(i64 0, 2) i64 @multirange_overright_range(ptr noundef readonly captures(none) %0) local_unnamed_addr #0 {
  %2 = alloca %struct.RangeBound, align 8
  %3 = alloca %struct.RangeBound, align 8
  %4 = alloca %struct.RangeBound, align 8
  %5 = alloca %struct.RangeBound, align 8
  %6 = alloca i8, align 1
  %7 = getelementptr inbounds nuw i8, ptr %0, i64 32
  %8 = load i64, ptr %7, align 8
  %9 = inttoptr i64 %8 to ptr
  %10 = tail call ptr @pg_detoast_datum(ptr noundef %9) #11
  %11 = getelementptr inbounds nuw i8, ptr %0, i64 48
  %12 = load i64, ptr %11, align 8
  %13 = inttoptr i64 %12 to ptr
  %14 = tail call ptr @pg_detoast_datum(ptr noundef %13) #11
  call void @llvm.lifetime.start.p0(i64 16, ptr nonnull %2) #11
  call void @llvm.lifetime.start.p0(i64 16, ptr nonnull %3) #11
  call void @llvm.lifetime.start.p0(i64 16, ptr nonnull %4) #11
  call void @llvm.lifetime.start.p0(i64 16, ptr nonnull %5) #11
  call void @llvm.lifetime.start.p0(i64 1, ptr nonnull %6) #11
  %15 = getelementptr inbounds nuw i8, ptr %10, i64 8
  %16 = load i32, ptr %15, align 4
  %17 = icmp eq i32 %16, 0
  br i1 %17, label %48, label %18

18:                                               ; preds = %1
  %19 = tail call signext i8 @range_get_flags(ptr noundef %14) #11
  %20 = and i8 %19, 1
  %.not = icmp eq i8 %20, 0
  br i1 %.not, label %21, label %48

21:                                               ; preds = %18
  %22 = getelementptr inbounds nuw i8, ptr %10, i64 4
  %23 = load i32, ptr %22, align 4
  %24 = load ptr, ptr %0, align 8
  %25 = getelementptr inbounds nuw i8, ptr %24, i64 24
  %26 = load ptr, ptr %25, align 8
  %27 = icmp eq ptr %26, null
  br i1 %27, label %30, label %28

28:                                               ; preds = %21
  %29 = load i32, ptr %26, align 8
  %.not.i = icmp eq i32 %29, %23
  br i1 %.not.i, label %multirange_get_typcache.exit, label %30

30:                                               ; preds = %28, %21
  %31 = tail call ptr @lookup_type_cache(i32 noundef %23, i32 noundef 65536) #11
  %32 = getelementptr inbounds nuw i8, ptr %31, i64 440
  %33 = load ptr, ptr %32, align 8
  %34 = icmp eq ptr %33, null
  br i1 %34, label %35, label %38

35:                                               ; preds = %30
  %36 = tail call zeroext i1 @errstart_cold(i32 noundef 21, ptr noundef null) #13
  tail call void @llvm.assume(i1 %36)
  %37 = tail call i32 (ptr, ...) @errmsg_internal(ptr noundef nonnull @.str.9, i32 noundef %23) #11
  tail call void @errfinish(ptr noundef nonnull @.str.2, i32 noundef 557, ptr noundef nonnull @__func__.multirange_get_typcache) #11
  unreachable

38:                                               ; preds = %30
  %39 = load ptr, ptr %0, align 8
  %40 = getelementptr inbounds nuw i8, ptr %39, i64 24
  store ptr %31, ptr %40, align 8
  br label %multirange_get_typcache.exit

multirange_get_typcache.exit:                     ; preds = %28, %38
  %.0.i = phi ptr [ %31, %38 ], [ %26, %28 ]
  %41 = getelementptr inbounds nuw i8, ptr %.0.i, i64 440
  %42 = load ptr, ptr %41, align 8
  call void @multirange_get_bounds(ptr noundef %42, ptr noundef nonnull %10, i32 noundef 0, ptr noundef nonnull %2, ptr noundef nonnull %3)
  %43 = load ptr, ptr %41, align 8
  call void @range_deserialize(ptr noundef %43, ptr noundef %14, ptr noundef nonnull %4, ptr noundef nonnull %5, ptr noundef nonnull %6) #11
  %44 = load ptr, ptr %41, align 8
  %45 = call i32 @range_cmp_bounds(ptr noundef %44, ptr noundef nonnull %2, ptr noundef nonnull %4) #11
  %46 = icmp sgt i32 %45, -1
  %47 = zext i1 %46 to i64
  br label %48

48:                                               ; preds = %1, %18, %multirange_get_typcache.exit
  %.0 = phi i64 [ %47, %multirange_get_typcache.exit ], [ 0, %18 ], [ 0, %1 ]
  call void @llvm.lifetime.end.p0(i64 1, ptr nonnull %6) #11
  call void @llvm.lifetime.end.p0(i64 16, ptr nonnull %5) #11
  call void @llvm.lifetime.end.p0(i64 16, ptr nonnull %4) #11
  call void @llvm.lifetime.end.p0(i64 16, ptr nonnull %3) #11
  call void @llvm.lifetime.end.p0(i64 16, ptr nonnull %2) #11
  ret i64 %.0
}